(dp1
S'files'
p2
(dp3
S'blog_urls'
p4
(dp5
S'index'
p6
(dp7
S'html_filename'
p8
S'blog_urls.html'
p9
sS'name'
p10
S'blog/urls'
p11
sS'nums'
p12
ccopy_reg
_reconstructor
p13
(ccoverage.results
Numbers
p14
c__builtin__
object
p15
NtRp16
(dp17
S'n_files'
p18
I1
sS'n_branches'
p19
I0
sS'n_statements'
p20
I3
sS'n_excluded'
p21
I0
sS'n_partial_branches'
p22
I0
sS'n_missing'
p23
I0
sS'n_missing_branches'
p24
I0
sbssS'hash'
p25
S'\xf4-i\x0f\x864N\xd0\x86\x82\x93%C\xf6%}'
p26
ssS'myblog_urls'
p27
(dp28
g6
(dp29
g8
S'myblog_urls.html'
p30
sg10
S'myblog/urls'
p31
sg12
g13
(g14
g15
NtRp32
(dp33
g18
I1
sg19
I0
sg20
I5
sg21
I0
sg22
I0
sg23
I0
sg24
I0
sbssg25
S'\xf2m\x95\xa1\x15%NJ\x93\x84\xacQ\xe8\xa6Rh'
p34
ssS'blog_admin'
p35
(dp36
g6
(dp37
g8
S'blog_admin.html'
p38
sg10
S'blog/admin'
p39
sg12
g13
(g14
g15
NtRp40
(dp41
g18
I1
sg19
I0
sg20
I4
sg21
I0
sg22
I0
sg23
I0
sg24
I0
sbssg25
S'bO\x956&V\x0e\xa7\xca\xf5\xa3\xf1o\x01d\xf7'
p42
ssS'blog_models'
p43
(dp44
g6
(dp45
g8
S'blog_models.html'
p46
sg10
S'blog/models'
p47
sg12
g13
(g14
g15
NtRp48
(dp49
g18
I1
sg19
I0
sg20
I23
sg21
I0
sg22
I0
sg23
I0
sg24
I0
sbssg25
S'\xf23\xad\xfc\x8e\xdd\xb0(\tC\xf2IF\x86\xa3\xa9'
p50
ssS'blog___init__'
p51
(dp52
g6
(dp53
g8
S'blog___init__.html'
p54
sg10
S'blog/__init__'
p55
sg12
g13
(g14
g15
NtRp56
(dp57
g18
I1
sg19
I0
sg20
I0
sg21
I0
sg22
I0
sg23
I0
sg24
I0
sbssg25
S'\x19g\xdfM\x1a\x019\xaf\x1baIeR\xe5u\xa7'
p58
ssS'myblog_settings'
p59
(dp60
g6
(dp61
g8
S'myblog_settings.html'
p62
sg10
S'myblog/settings'
p63
sg12
g13
(g14
g15
NtRp64
(dp65
g18
I1
sg19
I0
sg20
I19
sg21
I0
sg22
I0
sg23
I0
sg24
I0
sbssg25
S'5a1\x9c?\xa6xW\xaeP\xb0\x9e\xb4QZ\xe8'
p66
ssS'blog_forms'
p67
(dp68
g6
(dp69
g8
S'blog_forms.html'
p70
sg10
S'blog/forms'
p71
sg12
g13
(g14
g15
NtRp72
(dp73
g18
I1
sg19
I0
sg20
I14
sg21
I0
sg22
I0
sg23
I0
sg24
I0
sbssg25
S'>\xff\x8a\xe6&e&\x88\xac\xbc\xbd\xfe\xe8yRV'
p74
ssS'manage'
p75
(dp76
g6
(dp77
g8
S'manage.html'
p78
sg10
g75
sg12
g13
(g14
g15
NtRp79
(dp80
g18
I1
sg19
I2
sg20
I6
sg21
I0
sg22
I1
sg23
I0
sg24
I1
sbssg25
S'\xff\xc0o\x06r\x91\x9f\x9a5\x8e\x9b\xc5\xa3\xf4\xd1X'
p81
ssS'blog_views'
p82
(dp83
g6
(dp84
g8
S'blog_views.html'
p85
sg10
S'blog/views'
p86
sg12
g13
(g14
g15
NtRp87
(dp88
g18
I1
sg19
I0
sg20
I22
sg21
I0
sg22
I0
sg23
I0
sg24
I0
sbssg25
S"\xbcW\xd6'\x88\x16w\t\xa8\x81\x01-\x13l\xf6\xd3"
p89
ssS'blog_tests'
p90
(dp91
g6
(dp92
g8
S'blog_tests.html'
p93
sg10
S'blog/tests'
p94
sg12
g13
(g14
g15
NtRp95
(dp96
g18
I1
sg19
I0
sg20
I92
sg21
I0
sg22
I0
sg23
I0
sg24
I0
sbssg25
S'\xd6F\xe7\x14\x88\xfd\xc71q\x0e\xd8\x15\x1a\x1b\xde\xf3'
p97
ssS'myblog_views'
p98
(dp99
g6
(dp100
g8
S'myblog_views.html'
p101
sg10
S'myblog/views'
p102
sg12
g13
(g14
g15
NtRp103
(dp104
g18
I1
sg19
I0
sg20
I7
sg21
I0
sg22
I0
sg23
I0
sg24
I0
sbssg25
S'e\r\x87\x14\xa4\xb1O"G\x87]\x87m\xc9IX'
p105
ssS'myblog___init__'
p106
(dp107
g6
(dp108
g8
S'myblog___init__.html'
p109
sg10
S'myblog/__init__'
p110
sg12
g13
(g14
g15
NtRp111
(dp112
g18
I1
sg19
I0
sg20
I0
sg21
I0
sg22
I0
sg23
I0
sg24
I0
sbssg25
S'\x19g\xdfM\x1a\x019\xaf\x1baIeR\xe5u\xa7'
p113
sssS'version'
p114
S'3.7.1'
p115
sS'settings'
p116
S'8i\x97<*0]\xb5\xa6\x98\xea\xab\xf4Vu\xc0'
p117
sS'format'
p118
I1
s.